target datalayout = "e-m:e-p270:32:32-p271:32:32-p272:64:64-i64:64-i128:128-f80:128-n8:16:32:64-S128"
target triple = "x86_64-pc-linux-gnu"

%struct.ForEachState = type { ptr, i32 }
%struct.PlannerInfo = type { i32, ptr, ptr, i32, ptr, ptr, ptr, ptr, i32, ptr, ptr, ptr, ptr, ptr, ptr, ptr, ptr, i32, ptr, ptr, ptr, ptr, ptr, i8, ptr, ptr, ptr, ptr, ptr, i32, ptr, ptr, ptr, ptr, ptr, ptr, ptr, i32, ptr, ptr, ptr, i32, ptr, ptr, ptr, ptr, ptr, ptr, [8 x ptr], [8 x ptr], ptr, ptr, ptr, ptr, ptr, ptr, ptr, double, double, double, i32, i8, i8, i8, i8, i8, i8, i8, i32, ptr, ptr, i32, i8, i8, i32, ptr, ptr, ptr, ptr, ptr, ptr, i8, ptr }
%struct.List = type { i32, i32, i32, ptr, [0 x %union.ListCell] }
%union.ListCell = type { ptr }
%struct.RelOptInfo = type { i32, i32, ptr, double, i8, i8, i8, ptr, ptr, ptr, ptr, ptr, ptr, ptr, ptr, ptr, ptr, i32, i32, i32, i16, i16, ptr, ptr, ptr, ptr, ptr, ptr, ptr, ptr, i32, double, double, ptr, ptr, ptr, i32, i32, i32, i32, i8, ptr, ptr, ptr, ptr, ptr, %struct.QualCost, i32, ptr, i8, i8, ptr, ptr, ptr, ptr, i32, ptr, i8, ptr, ptr, ptr, ptr, ptr, ptr }
%struct.QualCost = type { double, double }
%struct.PlaceHolderInfo = type { i32, i32, ptr, ptr, ptr, ptr, i32 }
%struct.SpecialJoinInfo = type { i32, ptr, ptr, ptr, ptr, i32, i32, ptr, ptr, ptr, ptr, i8, i8, i8, ptr, ptr }

; Function Attrs: nounwind uwtable
define internal zeroext i1 @has_join_restriction(ptr noundef %0, ptr noundef %1) #0 {
  %3 = alloca i1, align 1
  %4 = alloca ptr, align 8
  %5 = alloca ptr, align 8
  %6 = alloca ptr, align 8
  %7 = alloca i32, align 4
  %8 = alloca %struct.ForEachState, align 8
  %9 = alloca ptr, align 8
  %10 = alloca %struct.ForEachState, align 8
  %11 = alloca ptr, align 8
  store ptr %0, ptr %4, align 8
  store ptr %1, ptr %5, align 8
  call void @llvm.lifetime.start.p0(i64 8, ptr %6) #7
  %12 = load ptr, ptr %5, align 8
  %13 = getelementptr inbounds nuw %struct.RelOptInfo, ptr %12, i32 0, i32 16
  %14 = load ptr, ptr %13, align 8
  %15 = icmp ne ptr %14, null
  br i1 %15, label %21, label %16

16:                                               ; preds = %2
  %17 = load ptr, ptr %5, align 8
  %18 = getelementptr inbounds nuw %struct.RelOptInfo, ptr %17, i32 0, i32 27
  %19 = load ptr, ptr %18, align 8
  %20 = icmp ne ptr %19, null
  br i1 %20, label %21, label %22

21:                                               ; preds = %16, %2
  store i1 true, ptr %3, align 1
  store i32 1, ptr %7, align 4
  br label %170

22:                                               ; preds = %16
  call void @llvm.lifetime.start.p0(i64 16, ptr %8) #7
  %23 = getelementptr inbounds nuw %struct.ForEachState, ptr %8, i32 0, i32 0
  %24 = load ptr, ptr %4, align 8
  %25 = getelementptr inbounds nuw %struct.PlannerInfo, ptr %24, i32 0, i32 35
  %26 = load ptr, ptr %25, align 8
  store ptr %26, ptr %23, align 8
  %27 = getelementptr inbounds nuw %struct.ForEachState, ptr %8, i32 0, i32 1
  store i32 0, ptr %27, align 8
  %28 = getelementptr i8, ptr %8, i64 12
  call void @llvm.memset.p0.i64(ptr align 4 %28, i8 0, i64 4, i1 false)
  br label %29

29:                                               ; preds = %78, %22
  %30 = getelementptr inbounds nuw %struct.ForEachState, ptr %8, i32 0, i32 0
  %31 = load ptr, ptr %30, align 8
  %32 = icmp ne ptr %31, null
  br i1 %32, label %33, label %50

33:                                               ; preds = %29
  %34 = getelementptr inbounds nuw %struct.ForEachState, ptr %8, i32 0, i32 1
  %35 = load i32, ptr %34, align 8
  %36 = getelementptr inbounds nuw %struct.ForEachState, ptr %8, i32 0, i32 0
  %37 = load ptr, ptr %36, align 8
  %38 = getelementptr inbounds nuw %struct.List, ptr %37, i32 0, i32 1
  %39 = load i32, ptr %38, align 4
  %40 = icmp slt i32 %35, %39
  br i1 %40, label %41, label %50

41:                                               ; preds = %33
  %42 = getelementptr inbounds nuw %struct.ForEachState, ptr %8, i32 0, i32 0
  %43 = load ptr, ptr %42, align 8
  %44 = getelementptr inbounds nuw %struct.List, ptr %43, i32 0, i32 3
  %45 = load ptr, ptr %44, align 8
  %46 = getelementptr inbounds nuw %struct.ForEachState, ptr %8, i32 0, i32 1
  %47 = load i32, ptr %46, align 8
  %48 = sext i32 %47 to i64
  %49 = getelementptr inbounds %union.ListCell, ptr %45, i64 %48
  store ptr %49, ptr %6, align 8
  br label %51

50:                                               ; preds = %33, %29
  store ptr null, ptr %6, align 8
  br label %51

51:                                               ; preds = %50, %41
  %52 = phi i32 [ 1, %41 ], [ 0, %50 ]
  %53 = icmp ne i32 %52, 0
  br i1 %53, label %55, label %54

54:                                               ; preds = %51
  store i32 2, ptr %7, align 4
  br label %82

55:                                               ; preds = %51
  call void @llvm.lifetime.start.p0(i64 8, ptr %9) #7
  %56 = load ptr, ptr %6, align 8
  %57 = load ptr, ptr %56, align 8
  store ptr %57, ptr %9, align 8
  %58 = load ptr, ptr %5, align 8
  %59 = getelementptr inbounds nuw %struct.RelOptInfo, ptr %58, i32 0, i32 2
  %60 = load ptr, ptr %59, align 8
  %61 = load ptr, ptr %9, align 8
  %62 = getelementptr inbounds nuw %struct.PlaceHolderInfo, ptr %61, i32 0, i32 3
  %63 = load ptr, ptr %62, align 8
  %64 = call zeroext i1 @bms_is_subset(ptr noundef %60, ptr noundef %63)
  br i1 %64, label %65, label %74

65:                                               ; preds = %55
  %66 = load ptr, ptr %5, align 8
  %67 = getelementptr inbounds nuw %struct.RelOptInfo, ptr %66, i32 0, i32 2
  %68 = load ptr, ptr %67, align 8
  %69 = load ptr, ptr %9, align 8
  %70 = getelementptr inbounds nuw %struct.PlaceHolderInfo, ptr %69, i32 0, i32 3
  %71 = load ptr, ptr %70, align 8
  %72 = call zeroext i1 @bms_equal(ptr noundef %68, ptr noundef %71)
  br i1 %72, label %74, label %73

73:                                               ; preds = %65
  store i1 true, ptr %3, align 1
  store i32 1, ptr %7, align 4
  br label %75

74:                                               ; preds = %65, %55
  store i32 0, ptr %7, align 4
  br label %75

75:                                               ; preds = %74, %73
  call void @llvm.lifetime.end.p0(i64 8, ptr %9) #7
  %76 = load i32, ptr %7, align 4
  switch i32 %76, label %82 [
    i32 0, label %77
  ]

77:                                               ; preds = %75
  br label %78

78:                                               ; preds = %77
  %79 = getelementptr inbounds nuw %struct.ForEachState, ptr %8, i32 0, i32 1
  %80 = load i32, ptr %79, align 8
  %81 = add i32 %80, 1
  store i32 %81, ptr %79, align 8
  br label %29, !llvm.loop !11

82:                                               ; preds = %75, %54
  call void @llvm.lifetime.end.p0(i64 16, ptr %8) #7
  %83 = load i32, ptr %7, align 4
  switch i32 %83, label %170 [
    i32 2, label %84
  ]

84:                                               ; preds = %82
  call void @llvm.lifetime.start.p0(i64 16, ptr %10) #7
  %85 = getelementptr inbounds nuw %struct.ForEachState, ptr %10, i32 0, i32 0
  %86 = load ptr, ptr %4, align 8
  %87 = getelementptr inbounds nuw %struct.PlannerInfo, ptr %86, i32 0, i32 28
  %88 = load ptr, ptr %87, align 8
  store ptr %88, ptr %85, align 8
  %89 = getelementptr inbounds nuw %struct.ForEachState, ptr %10, i32 0, i32 1
  store i32 0, ptr %89, align 8
  %90 = getelementptr i8, ptr %10, i64 12
  call void @llvm.memset.p0.i64(ptr align 4 %90, i8 0, i64 4, i1 false)
  br label %91

91:                                               ; preds = %163, %84
  %92 = getelementptr inbounds nuw %struct.ForEachState, ptr %10, i32 0, i32 0
  %93 = load ptr, ptr %92, align 8
  %94 = icmp ne ptr %93, null
  br i1 %94, label %95, label %112

95:                                               ; preds = %91
  %96 = getelementptr inbounds nuw %struct.ForEachState, ptr %10, i32 0, i32 1
  %97 = load i32, ptr %96, align 8
  %98 = getelementptr inbounds nuw %struct.ForEachState, ptr %10, i32 0, i32 0
  %99 = load ptr, ptr %98, align 8
  %100 = getelementptr inbounds nuw %struct.List, ptr %99, i32 0, i32 1
  %101 = load i32, ptr %100, align 4
  %102 = icmp slt i32 %97, %101
  br i1 %102, label %103, label %112

103:                                              ; preds = %95
  %104 = getelementptr inbounds nuw %struct.ForEachState, ptr %10, i32 0, i32 0
  %105 = load ptr, ptr %104, align 8
  %106 = getelementptr inbounds nuw %struct.List, ptr %105, i32 0, i32 3
  %107 = load ptr, ptr %106, align 8
  %108 = getelementptr inbounds nuw %struct.ForEachState, ptr %10, i32 0, i32 1
  %109 = load i32, ptr %108, align 8
  %110 = sext i32 %109 to i64
  %111 = getelementptr inbounds %union.ListCell, ptr %107, i64 %110
  store ptr %111, ptr %6, align 8
  br label %113

112:                                              ; preds = %95, %91
  store ptr null, ptr %6, align 8
  br label %113

113:                                              ; preds = %112, %103
  %114 = phi i32 [ 1, %103 ], [ 0, %112 ]
  %115 = icmp ne i32 %114, 0
  br i1 %115, label %117, label %116

116:                                              ; preds = %113
  store i32 5, ptr %7, align 4
  br label %167

117:                                              ; preds = %113
  call void @llvm.lifetime.start.p0(i64 8, ptr %11) #7
  %118 = load ptr, ptr %6, align 8
  %119 = load ptr, ptr %118, align 8
  store ptr %119, ptr %11, align 8
  %120 = load ptr, ptr %11, align 8
  %121 = getelementptr inbounds nuw %struct.SpecialJoinInfo, ptr %120, i32 0, i32 5
  %122 = load i32, ptr %121, align 8
  %123 = icmp eq i32 %122, 2
  br i1 %123, label %124, label %125

124:                                              ; preds = %117
  store i32 7, ptr %7, align 4
  br label %160

125:                                              ; preds = %117
  %126 = load ptr, ptr %11, align 8
  %127 = getelementptr inbounds nuw %struct.SpecialJoinInfo, ptr %126, i32 0, i32 1
  %128 = load ptr, ptr %127, align 8
  %129 = load ptr, ptr %5, align 8
  %130 = getelementptr inbounds nuw %struct.RelOptInfo, ptr %129, i32 0, i32 2
  %131 = load ptr, ptr %130, align 8
  %132 = call zeroext i1 @bms_is_subset(ptr noundef %128, ptr noundef %131)
  br i1 %132, label %133, label %142

133:                                              ; preds = %125
  %134 = load ptr, ptr %11, align 8
  %135 = getelementptr inbounds nuw %struct.SpecialJoinInfo, ptr %134, i32 0, i32 2
  %136 = load ptr, ptr %135, align 8
  %137 = load ptr, ptr %5, align 8
  %138 = getelementptr inbounds nuw %struct.RelOptInfo, ptr %137, i32 0, i32 2
  %139 = load ptr, ptr %138, align 8
  %140 = call zeroext i1 @bms_is_subset(ptr noundef %136, ptr noundef %139)
  br i1 %140, label %141, label %142

141:                                              ; preds = %133
  store i32 7, ptr %7, align 4
  br label %160

142:                                              ; preds = %133, %125
  %143 = load ptr, ptr %11, align 8
  %144 = getelementptr inbounds nuw %struct.SpecialJoinInfo, ptr %143, i32 0, i32 1
  %145 = load ptr, ptr %144, align 8
  %146 = load ptr, ptr %5, align 8
  %147 = getelementptr inbounds nuw %struct.RelOptInfo, ptr %146, i32 0, i32 2
  %148 = load ptr, ptr %147, align 8
  %149 = call zeroext i1 @bms_overlap(ptr noundef %145, ptr noundef %148)
  br i1 %149, label %158, label %150

150:                                              ; preds = %142
  %151 = load ptr, ptr %11, align 8
  %152 = getelementptr inbounds nuw %struct.SpecialJoinInfo, ptr %151, i32 0, i32 2
  %153 = load ptr, ptr %152, align 8
  %154 = load ptr, ptr %5, align 8
  %155 = getelementptr inbounds nuw %struct.RelOptInfo, ptr %154, i32 0, i32 2
  %156 = load ptr, ptr %155, align 8
  %157 = call zeroext i1 @bms_overlap(ptr noundef %153, ptr noundef %156)
  br i1 %157, label %158, label %159

158:                                              ; preds = %150, %142
  store i1 true, ptr %3, align 1
  store i32 1, ptr %7, align 4
  br label %160

159:                                              ; preds = %150
  store i32 0, ptr %7, align 4
  br label %160

160:                                              ; preds = %159, %158, %141, %124
  call void @llvm.lifetime.end.p0(i64 8, ptr %11) #7
  %161 = load i32, ptr %7, align 4
  switch i32 %161, label %167 [
    i32 0, label %162
    i32 7, label %163
  ]

162:                                              ; preds = %160
  br label %163

163:                                              ; preds = %162, %160
  %164 = getelementptr inbounds nuw %struct.ForEachState, ptr %10, i32 0, i32 1
  %165 = load i32, ptr %164, align 8
  %166 = add i32 %165, 1
  store i32 %166, ptr %164, align 8
  br label %91, !llvm.loop !12

167:                                              ; preds = %160, %116
  call void @llvm.lifetime.end.p0(i64 16, ptr %10) #7
  %168 = load i32, ptr %7, align 4
  switch i32 %168, label %170 [
    i32 5, label %169
  ]

169:                                              ; preds = %167
  store i1 false, ptr %3, align 1
  store i32 1, ptr %7, align 4
  br label %170

170:                                              ; preds = %169, %167, %82, %21
  call void @llvm.lifetime.end.p0(i64 8, ptr %6) #7
  %171 = load i1, ptr %3, align 1
  ret i1 %171
}