; Function Attrs: nounwind uwtable
define internal fastcc noundef zeroext i1 @has_join_restriction(ptr noundef readonly captures(none) %0, ptr noundef readonly captures(none) %1) unnamed_addr #0 {
  %3 = getelementptr inbounds nuw i8, ptr %1, i64 104
  %4 = load ptr, ptr %3, align 8
  %.not = icmp eq ptr %4, null
  br i1 %.not, label %5, label %.thread63

5:                                                ; preds = %2
  %6 = getelementptr inbounds nuw i8, ptr %1, i64 168
  %7 = load ptr, ptr %6, align 8
  %.not44 = icmp eq ptr %7, null
  br i1 %.not44, label %8, label %.thread63

8:                                                ; preds = %5
  %9 = getelementptr inbounds nuw i8, ptr %0, i64 280
  %10 = load ptr, ptr %9, align 8
  %.not45 = icmp eq ptr %10, null
  br i1 %.not45, label %.critedge50, label %.lr.ph

.lr.ph:                                           ; preds = %8
  %11 = getelementptr inbounds nuw i8, ptr %10, i64 4
  %12 = getelementptr inbounds nuw i8, ptr %10, i64 16
  %13 = getelementptr inbounds nuw i8, ptr %1, i64 8
  %14 = load i32, ptr %11, align 4
  %15 = icmp sgt i32 %14, 0
  br i1 %15, label %.lr.ph69, label %.critedge50

.lr.ph69:                                         ; preds = %.lr.ph, %.critedge
  %indvars.iv = phi i64 [ %indvars.iv.next, %.critedge ], [ 0, %.lr.ph ]
  %16 = load ptr, ptr %12, align 8
  %17 = getelementptr inbounds nuw %union.ListCell, ptr %16, i64 %indvars.iv
  %18 = load ptr, ptr %17, align 8
  %19 = load ptr, ptr %13, align 8
  %20 = getelementptr inbounds nuw i8, ptr %18, i64 16
  %21 = load ptr, ptr %20, align 8
  %22 = tail call zeroext i1 @bms_is_subset(ptr noundef %19, ptr noundef %21) #9
  br i1 %22, label %23, label %.critedge

23:                                               ; preds = %.lr.ph69
  %24 = load ptr, ptr %13, align 8
  %25 = load ptr, ptr %20, align 8
  %26 = tail call zeroext i1 @bms_equal(ptr noundef %24, ptr noundef %25) #9
  br i1 %26, label %.critedge, label %.thread63

.critedge:                                        ; preds = %23, %.lr.ph69
  %indvars.iv.next = add nuw nsw i64 %indvars.iv, 1
  %27 = load i32, ptr %11, align 4
  %28 = sext i32 %27 to i64
  %29 = icmp slt i64 %indvars.iv.next, %28
  br i1 %29, label %.lr.ph69, label %.critedge50

.critedge50:                                      ; preds = %.critedge, %.lr.ph, %8
  %30 = getelementptr inbounds nuw i8, ptr %0, i64 224
  %31 = load ptr, ptr %30, align 8
  %32 = getelementptr inbounds nuw i8, ptr %31, i64 4
  %.not47 = icmp eq ptr %31, null
  br i1 %.not47, label %.thread63, label %.lr.ph71

.lr.ph71:                                         ; preds = %.critedge50
  %33 = getelementptr inbounds nuw i8, ptr %31, i64 16
  %34 = getelementptr inbounds nuw i8, ptr %1, i64 8
  %35 = load i32, ptr %32, align 4
  %36 = icmp sgt i32 %35, 0
  br i1 %36, label %.lr.ph82, label %.thread63

.lr.ph82:                                         ; preds = %.lr.ph71, %62
  %indvars.iv86 = phi i64 [ %indvars.iv.next87, %62 ], [ 0, %.lr.ph71 ]
  %37 = load ptr, ptr %33, align 8
  %38 = getelementptr inbounds nuw %union.ListCell, ptr %37, i64 %indvars.iv86
  %39 = load ptr, ptr %38, align 8
  %40 = getelementptr inbounds nuw i8, ptr %39, i64 40
  %41 = load i32, ptr %40, align 8
  %42 = icmp eq i32 %41, 2
  br i1 %42, label %62, label %43

43:                                               ; preds = %.lr.ph82
  %44 = getelementptr inbounds nuw i8, ptr %39, i64 8
  %45 = load ptr, ptr %44, align 8
  %46 = load ptr, ptr %34, align 8
  %47 = tail call zeroext i1 @bms_is_subset(ptr noundef %45, ptr noundef %46) #9
  br i1 %47, label %48, label %53

48:                                               ; preds = %43
  %49 = getelementptr inbounds nuw i8, ptr %39, i64 16
  %50 = load ptr, ptr %49, align 8
  %51 = load ptr, ptr %34, align 8
  %52 = tail call zeroext i1 @bms_is_subset(ptr noundef %50, ptr noundef %51) #9
  br i1 %52, label %62, label %53

53:                                               ; preds = %48, %43
  %54 = load ptr, ptr %44, align 8
  %55 = load ptr, ptr %34, align 8
  %56 = tail call zeroext i1 @bms_overlap(ptr noundef %54, ptr noundef %55) #9
  br i1 %56, label %.thread63, label %57

57:                                               ; preds = %53
  %58 = getelementptr inbounds nuw i8, ptr %39, i64 16
  %59 = load ptr, ptr %58, align 8
  %60 = load ptr, ptr %34, align 8
  %61 = tail call zeroext i1 @bms_overlap(ptr noundef %59, ptr noundef %60) #9
  br i1 %61, label %.thread63, label %62

62:                                               ; preds = %.lr.ph82, %48, %57
  %indvars.iv.next87 = add nuw nsw i64 %indvars.iv86, 1
  %63 = load i32, ptr %32, align 4
  %64 = sext i32 %63 to i64
  %65 = icmp slt i64 %indvars.iv.next87, %64
  br i1 %65, label %.lr.ph82, label %.thread63

.thread63:                                        ; preds = %23, %62, %53, %57, %.critedge50, %.lr.ph71, %2, %5
  %.0 = phi i1 [ true, %5 ], [ true, %2 ], [ false, %.critedge50 ], [ false, %.lr.ph71 ], [ false, %62 ], [ true, %53 ], [ true, %57 ], [ true, %23 ]
  ret i1 %.0
}